target datalayout = "e-m:e-p270:32:32-p271:32:32-p272:64:64-i64:64-i128:128-f80:128-n8:16:32:64-S128"
target triple = "x86_64-pc-linux-gnu"

%"class.folly::netops::Msgheader" = type { %struct.msghdr }
%struct.msghdr = type { ptr, i32, ptr, i64, ptr, i64, i32 }
%struct.cmsghdr = type { i64, i32, i32, [0 x i8] }

; Function Attrs: inlinehint mustprogress nounwind uwtable
define available_externally ptr @__cmsg_nxthdr(ptr noundef %0, ptr noundef %1) #7 {
  %3 = alloca ptr, align 8
  %4 = alloca ptr, align 8
  %5 = alloca ptr, align 8
  store ptr %0, ptr %4, align 8, !tbaa !34
  store ptr %1, ptr %5, align 8, !tbaa !55
  %6 = load ptr, ptr %5, align 8, !tbaa !55
  %7 = getelementptr inbounds nuw %struct.cmsghdr, ptr %6, i32 0, i32 0
  %8 = load i64, ptr %7, align 8, !tbaa !30
  %9 = icmp ult i64 %8, 16
  br i1 %9, label %10, label %11

10:                                               ; preds = %2
  store ptr null, ptr %3, align 8
  br label %50

11:                                               ; preds = %2
  %12 = load ptr, ptr %5, align 8, !tbaa !55
  %13 = load ptr, ptr %5, align 8, !tbaa !55
  %14 = getelementptr inbounds nuw %struct.cmsghdr, ptr %13, i32 0, i32 0
  %15 = load i64, ptr %14, align 8, !tbaa !30
  %16 = add i64 %15, 8
  %17 = sub i64 %16, 1
  %18 = and i64 %17, -8
  %19 = getelementptr inbounds nuw i8, ptr %12, i64 %18
  store ptr %19, ptr %5, align 8, !tbaa !55
  %20 = load ptr, ptr %5, align 8, !tbaa !55
  %21 = getelementptr inbounds %struct.cmsghdr, ptr %20, i64 1
  %22 = load ptr, ptr %4, align 8, !tbaa !34
  %23 = getelementptr inbounds nuw %struct.msghdr, ptr %22, i32 0, i32 4
  %24 = load ptr, ptr %23, align 8, !tbaa !57
  %25 = load ptr, ptr %4, align 8, !tbaa !34
  %26 = getelementptr inbounds nuw %struct.msghdr, ptr %25, i32 0, i32 5
  %27 = load i64, ptr %26, align 8, !tbaa !58
  %28 = getelementptr inbounds nuw i8, ptr %24, i64 %27
  %29 = icmp ugt ptr %21, %28
  br i1 %29, label %47, label %30

30:                                               ; preds = %11
  %31 = load ptr, ptr %5, align 8, !tbaa !55
  %32 = load ptr, ptr %5, align 8, !tbaa !55
  %33 = getelementptr inbounds nuw %struct.cmsghdr, ptr %32, i32 0, i32 0
  %34 = load i64, ptr %33, align 8, !tbaa !30
  %35 = add i64 %34, 8
  %36 = sub i64 %35, 1
  %37 = and i64 %36, -8
  %38 = getelementptr inbounds nuw i8, ptr %31, i64 %37
  %39 = load ptr, ptr %4, align 8, !tbaa !34
  %40 = getelementptr inbounds nuw %struct.msghdr, ptr %39, i32 0, i32 4
  %41 = load ptr, ptr %40, align 8, !tbaa !57
  %42 = load ptr, ptr %4, align 8, !tbaa !34
  %43 = getelementptr inbounds nuw %struct.msghdr, ptr %42, i32 0, i32 5
  %44 = load i64, ptr %43, align 8, !tbaa !58
  %45 = getelementptr inbounds nuw i8, ptr %41, i64 %44
  %46 = icmp ugt ptr %38, %45
  br i1 %46, label %47, label %48

47:                                               ; preds = %30, %11
  store ptr null, ptr %3, align 8
  br label %50

48:                                               ; preds = %30
  %49 = load ptr, ptr %5, align 8, !tbaa !55
  store ptr %49, ptr %3, align 8
  br label %50

50:                                               ; preds = %48, %47, %10
  %51 = load ptr, ptr %3, align 8
  ret ptr %51
}

; Function Attrs: mustprogress nounwind uwtable
define noundef ptr @_ZN5folly6netops9Msgheader11cmsgNextHrdEP7cmsghdr(ptr noundef nonnull align 8 dereferenceable(56) %0, ptr noundef %1) #3 align 2 {
  %3 = alloca ptr, align 8
  %4 = alloca ptr, align 8
  store ptr %0, ptr %3, align 8, !tbaa !40
  store ptr %1, ptr %4, align 8, !tbaa !55
  %5 = load ptr, ptr %3, align 8
  %6 = getelementptr inbounds nuw %"class.folly::netops::Msgheader", ptr %5, i32 0, i32 0
  %7 = load ptr, ptr %4, align 8, !tbaa !55
  %8 = call ptr @__cmsg_nxthdr(ptr noundef %6, ptr noundef %7) #8
  ret ptr %8
}