; Function Attrs: mustprogress nofree norecurse nosync nounwind willreturn memory(argmem: read) uwtable
define noundef ptr @_ZN5folly6netops9Msgheader11cmsgNextHrdEP7cmsghdr(ptr noundef nonnull readonly align 8 captures(none) dereferenceable(56) %0, ptr noundef readonly captures(address, ret: address, provenance) %1) local_unnamed_addr #9 align 2 {
  %3 = load i64, ptr %1, align 8, !tbaa !27
  %4 = icmp ult i64 %3, 16
  br i1 %4, label %__cmsg_nxthdr.exit, label %5

5:                                                ; preds = %2
  %6 = add i64 %3, 7
  %7 = and i64 %6, -8
  %8 = getelementptr inbounds nuw i8, ptr %1, i64 %7
  %9 = getelementptr inbounds nuw i8, ptr %8, i64 16
  %10 = getelementptr inbounds nuw i8, ptr %0, i64 32
  %11 = load ptr, ptr %10, align 8, !tbaa !28
  %12 = getelementptr inbounds nuw i8, ptr %0, i64 40
  %13 = load i64, ptr %12, align 8, !tbaa !29
  %14 = getelementptr inbounds nuw i8, ptr %11, i64 %13
  %15 = icmp ugt ptr %9, %14
  br i1 %15, label %__cmsg_nxthdr.exit, label %16

16:                                               ; preds = %5
  %17 = load i64, ptr %8, align 8, !tbaa !27
  %18 = add i64 %17, 7
  %19 = and i64 %18, -8
  %20 = getelementptr inbounds nuw i8, ptr %8, i64 %19
  %21 = icmp ugt ptr %20, %14
  %spec.select.i = select i1 %21, ptr null, ptr %8
  br label %__cmsg_nxthdr.exit

__cmsg_nxthdr.exit:                               ; preds = %2, %5, %16
  %.0.i = phi ptr [ null, %2 ], [ null, %5 ], [ %spec.select.i, %16 ]
  ret ptr %.0.i
}